Certificate:
    Data:
        Version: 3 (0x2)
        Serial Number: 2 (0x2)
    Signature Algorithm: sha256WithRSAEncryption
        Issuer: C=CN, ST=GD, L=GZ, O=ericsson, OU=ses, CN=CA/emailAddress=362625119@qq.com
        Validity
            Not Before: Jan  1 00:43:17 2017 GMT
            Not After : Jan  1 00:43:17 2018 GMT
        Subject: C=CN, ST=GD, O=ericsson, OU=ses, CN=myClient/emailAddress=362625119@qq.com
        Subject Public Key Info:
            Public Key Algorithm: rsaEncryption
                Public-Key: (1024 bit)
                Modulus:
                    00:d9:6b:a0:51:a5:6b:7a:aa:8c:61:20:7c:fb:f1:
                    42:83:4e:5a:c6:f4:d9:86:52:b2:35:6d:f1:6d:c6:
                    97:4b:49:0d:03:cf:aa:7a:42:75:33:da:bf:fe:4d:
                    75:a9:40:b6:1f:30:4d:77:57:19:7d:b8:be:84:39:
                    52:53:13:6a:69:ad:fc:70:47:21:47:dc:7e:67:6f:
                    04:c0:6a:40:88:3e:c2:4f:8d:8c:f5:b6:a8:83:13:
                    63:98:f7:bd:47:42:46:f0:4f:b9:4c:56:a5:5e:39:
                    bf:a5:60:17:ec:1b:18:68:f6:3a:15:f0:a5:4e:fc:
                    3a:eb:0a:96:ea:d1:8b:b4:cf
                Exponent: 65537 (0x10001)
        X509v3 extensions:
            X509v3 Basic Constraints: 
                CA:FALSE
            Netscape Comment: 
                OpenSSL Generated Certificate
            X509v3 Subject Key Identifier: 
                A9:3F:E9:E1:97:3E:5C:97:C7:F4:B9:7A:E0:AB:A3:5D:73:D4:95:BC
            X509v3 Authority Key Identifier: 
                keyid:D8:FF:B0:49:82:B8:09:08:2E:6B:E5:65:7B:08:3F:5A:62:98:70:C8

    Signature Algorithm: sha256WithRSAEncryption
         4a:f4:d5:7f:8a:9b:0e:73:27:37:76:6c:25:15:8c:80:1e:87:
         f7:49:64:29:8d:20:9b:88:47:8b:7c:05:44:f5:f5:f9:e7:d3:
         c8:fb:1b:62:18:83:b9:aa:d5:c8:d5:a6:10:9f:cc:8e:e7:cb:
         22:bf:02:a8:c8:7f:a7:b1:18:d7:b3:b6:83:31:36:f9:a5:52:
         74:45:8c:6c:ed:f5:57:11:36:5d:68:32:22:85:96:a8:ea:88:
         1a:6c:2f:c2:3a:72:d8:44:72:2c:7f:b3:28:2d:8f:51:0f:16:
         dd:2e:51:ab:31:41:53:11:eb:6a:7a:30:25:75:81:cd:1a:94:
         87:26
-----BEGIN CERTIFICATE-----
MIIC1jCCAj+gAwIBAgIBAjANBgkqhkiG9w0BAQsFADB2MQswCQYDVQQGEwJDTjEL
MAkGA1UECAwCR0QxCzAJBgNVBAcMAkdaMREwDwYDVQQKDAhlcmljc3NvbjEMMAoG
A1UECwwDc2VzMQswCQYDVQQDDAJDQTEfMB0GCSqGSIb3DQEJARYQMzYyNjI1MTE5
QHFxLmNvbTAeFw0xNzAxMDEwMDQzMTdaFw0xODAxMDEwMDQzMTdaMG8xCzAJBgNV
BAYTAkNOMQswCQYDVQQIDAJHRDERMA8GA1UECgwIZXJpY3Nzb24xDDAKBgNVBAsM
A3NlczERMA8GA1UEAwwIbXlDbGllbnQxHzAdBgkqhkiG9w0BCQEWEDM2MjYyNTEx
OUBxcS5jb20wgZ8wDQYJKoZIhvcNAQEBBQADgY0AMIGJAoGBANlroFGla3qqjGEg
fPvxQoNOWsb02YZSsjVt8W3Gl0tJDQPPqnpCdTPav/5NdalAth8wTXdXGX24voQ5
UlMTammt/HBHIUfcfmdvBMBqQIg+wk+NjPW2qIMTY5j3vUdCRvBPuUxWpV45v6Vg
F+wbGGj2OhXwpU78OusKlurRi7TPAgMBAAGjezB5MAkGA1UdEwQCMAAwLAYJYIZI
AYb4QgENBB8WHU9wZW5TU0wgR2VuZXJhdGVkIENlcnRpZmljYXRlMB0GA1UdDgQW
BBSpP+nhlz5cl8f0uXrgq6Ndc9SVvDAfBgNVHSMEGDAWgBTY/7BJgrgJCC5r5WV7
CD9aYphwyDANBgkqhkiG9w0BAQsFAAOBgQBK9NV/ipsOcyc3dmwlFYyAHof3SWQp
jSCbiEeLfAVE9fX559PI+xtiGIO5qtXI1aYQn8yO58sivwKoyH+nsRjXs7aDMTb5
pVJ0RYxs7fVXETZdaDIihZao6ogabC/COnLYRHIsf7MoLY9RDxbdLlGrMUFTEetq
ejAldYHNGpSHJg==
-----END CERTIFICATE-----
