Certificate:
    Data:
        Version: 3 (0x2)
        Serial Number: 1 (0x1)
    Signature Algorithm: sha256WithRSAEncryption
        Issuer: C=CN, ST=GD, L=GZ, O=ericsson, OU=ses, CN=CA/emailAddress=362625119@qq.com
        Validity
            Not Before: Jan  1 00:35:26 2017 GMT
            Not After : Jan  1 00:35:26 2018 GMT
        Subject: C=CN, ST=GD, O=ericsson, OU=ses, CN=testSsl.com/emailAddress=362625119@qq.com
        Subject Public Key Info:
            Public Key Algorithm: rsaEncryption
                Public-Key: (1024 bit)
                Modulus:
                    00:dc:26:68:7c:61:58:24:db:0f:87:ab:c2:0b:28:
                    dd:20:19:b1:ec:38:e8:cf:d0:1d:34:37:df:33:a4:
                    a2:b9:91:d6:7f:a5:46:f6:0a:00:e7:86:f6:ef:bc:
                    11:4f:99:16:d2:da:7e:ce:1f:35:1d:79:6e:cb:b2:
                    e3:c7:28:4d:c8:c7:4a:0e:2e:a4:84:7d:0a:7e:ca:
                    57:bc:02:34:29:cf:f6:45:35:14:35:b1:e8:3c:9f:
                    3c:c0:0e:b2:41:20:51:58:e4:8b:d0:2c:bf:3d:a3:
                    30:2f:e8:f1:13:10:d0:3b:b4:a5:9e:0f:bd:61:c7:
                    4e:07:47:df:65:8d:05:e5:55
                Exponent: 65537 (0x10001)
        X509v3 extensions:
            X509v3 Basic Constraints: 
                CA:FALSE
            Netscape Comment: 
                OpenSSL Generated Certificate
            X509v3 Subject Key Identifier: 
                D9:72:6C:40:1B:11:6C:24:72:55:B1:21:9E:E7:DD:6D:48:CD:7F:F8
            X509v3 Authority Key Identifier: 
                keyid:D8:FF:B0:49:82:B8:09:08:2E:6B:E5:65:7B:08:3F:5A:62:98:70:C8

    Signature Algorithm: sha256WithRSAEncryption
         a5:cf:e3:bb:68:66:64:ee:66:30:ea:1a:71:cc:b3:8a:59:e6:
         80:10:33:36:af:ec:95:11:02:f3:29:a7:1b:9d:28:75:85:22:
         70:5c:89:5b:92:ad:90:5c:56:65:7d:2a:5c:b4:e9:12:b5:c6:
         6f:83:00:c3:b3:48:ca:ac:56:39:96:28:45:be:b6:da:60:21:
         c7:43:c9:9b:54:34:b7:63:67:81:3b:35:5a:98:c2:a2:f3:4c:
         1d:90:e5:ca:74:9f:84:e6:be:0f:4f:e7:a1:90:fb:d3:20:d1:
         fb:d4:db:0a:26:42:77:21:41:05:76:55:4d:84:01:07:75:e6:
         61:fe
-----BEGIN CERTIFICATE-----
MIIC2TCCAkKgAwIBAgIBATANBgkqhkiG9w0BAQsFADB2MQswCQYDVQQGEwJDTjEL
MAkGA1UECAwCR0QxCzAJBgNVBAcMAkdaMREwDwYDVQQKDAhlcmljc3NvbjEMMAoG
A1UECwwDc2VzMQswCQYDVQQDDAJDQTEfMB0GCSqGSIb3DQEJARYQMzYyNjI1MTE5
QHFxLmNvbTAeFw0xNzAxMDEwMDM1MjZaFw0xODAxMDEwMDM1MjZaMHIxCzAJBgNV
BAYTAkNOMQswCQYDVQQIDAJHRDERMA8GA1UECgwIZXJpY3Nzb24xDDAKBgNVBAsM
A3NlczEUMBIGA1UEAwwLdGVzdFNzbC5jb20xHzAdBgkqhkiG9w0BCQEWEDM2MjYy
NTExOUBxcS5jb20wgZ8wDQYJKoZIhvcNAQEBBQADgY0AMIGJAoGBANwmaHxhWCTb
D4erwgso3SAZsew46M/QHTQ33zOkormR1n+lRvYKAOeG9u+8EU+ZFtLafs4fNR15
bsuy48coTcjHSg4upIR9Cn7KV7wCNCnP9kU1FDWx6DyfPMAOskEgUVjki9Asvz2j
MC/o8RMQ0Du0pZ4PvWHHTgdH32WNBeVVAgMBAAGjezB5MAkGA1UdEwQCMAAwLAYJ
YIZIAYb4QgENBB8WHU9wZW5TU0wgR2VuZXJhdGVkIENlcnRpZmljYXRlMB0GA1Ud
DgQWBBTZcmxAGxFsJHJVsSGe591tSM1/+DAfBgNVHSMEGDAWgBTY/7BJgrgJCC5r
5WV7CD9aYphwyDANBgkqhkiG9w0BAQsFAAOBgQClz+O7aGZk7mYw6hpxzLOKWeaA
EDM2r+yVEQLzKacbnSh1hSJwXIlbkq2QXFZlfSpctOkStcZvgwDDs0jKrFY5lihF
vrbaYCHHQ8mbVDS3Y2eBOzVamMKi80wdkOXKdJ+E5r4PT+ehkPvTINH71NsKJkJ3
IUEFdlVNhAEHdeZh/g==
-----END CERTIFICATE-----
