Certificate:
    Data:
        Version: 3 (0x2)
        Serial Number: 2 (0x2)
    Signature Algorithm: sha256WithRSAEncryption
        Issuer: C=CN, ST=GD, L=GZ, O=ericsson, OU=ses, CN=CA/emailAddress=362625119@qq.com
        Validity
            Not Before: Jan  3 15:19:21 2017 GMT
            Not After : Jan  3 15:19:21 2018 GMT
        Subject: C=CN, ST=GD, O=ericsson, OU=ses, CN=www.dummy.com/emailAddress=362625119@qq.com
        Subject Public Key Info:
            Public Key Algorithm: rsaEncryption
                Public-Key: (1024 bit)
                Modulus:
                    00:aa:d3:b3:cb:8d:4a:d0:00:a0:5b:95:5b:d7:e6:
                    6e:cd:6d:7e:28:b9:61:64:55:d5:01:20:7a:a7:7d:
                    7d:8a:7e:cb:54:88:ce:2e:31:e3:fa:29:cb:46:85:
                    27:d3:38:db:dc:d9:bd:fb:59:fd:8a:03:fd:20:28:
                    82:1f:ab:36:b5:b5:e7:c9:ad:ea:1b:22:2e:07:d4:
                    d3:2a:f9:b1:93:8d:be:2d:49:05:09:90:92:93:8e:
                    10:a7:65:06:35:6a:1f:39:f4:f8:fe:eb:96:30:b4:
                    f2:29:14:55:08:fb:2c:b9:ee:f3:16:58:7a:5e:19:
                    40:40:23:78:9a:c7:d8:90:19
                Exponent: 65537 (0x10001)
        X509v3 extensions:
            X509v3 Basic Constraints: 
                CA:FALSE
            Netscape Comment: 
                OpenSSL Generated Certificate
            X509v3 Subject Key Identifier: 
                91:C0:4F:42:0D:B6:C1:13:D3:F5:DC:AA:9B:5E:E6:42:EC:A8:7F:1F
            X509v3 Authority Key Identifier: 
                keyid:10:11:50:33:D9:E6:9A:F2:9C:20:11:5A:23:5B:0C:15:54:09:B1:AA

    Signature Algorithm: sha256WithRSAEncryption
         5b:3e:4e:32:80:56:b9:19:79:cc:ec:f0:22:9e:05:bb:98:49:
         09:c2:e4:bb:85:ea:10:3c:35:d3:22:77:e1:63:69:65:ca:23:
         d5:88:24:4c:43:f3:36:b1:81:2f:91:ee:ff:6b:3b:ac:56:44:
         54:7d:67:22:28:ce:93:e0:d8:44:1f:46:f6:dc:7f:a7:5e:d4:
         63:e9:13:ac:84:d9:97:36:ae:2f:44:b1:10:f4:7d:3a:94:79:
         4d:2d:0f:19:71:d6:02:ed:76:96:5c:63:ca:6b:4a:12:ea:69:
         be:f4:03:8b:48:70:d2:22:02:20:c9:02:d9:49:51:f4:15:2d:
         51:1f
-----BEGIN CERTIFICATE-----
MIIC2zCCAkSgAwIBAgIBAjANBgkqhkiG9w0BAQsFADB2MQswCQYDVQQGEwJDTjEL
MAkGA1UECAwCR0QxCzAJBgNVBAcMAkdaMREwDwYDVQQKDAhlcmljc3NvbjEMMAoG
A1UECwwDc2VzMQswCQYDVQQDDAJDQTEfMB0GCSqGSIb3DQEJARYQMzYyNjI1MTE5
QHFxLmNvbTAeFw0xNzAxMDMxNTE5MjFaFw0xODAxMDMxNTE5MjFaMHQxCzAJBgNV
BAYTAkNOMQswCQYDVQQIDAJHRDERMA8GA1UECgwIZXJpY3Nzb24xDDAKBgNVBAsM
A3NlczEWMBQGA1UEAwwNd3d3LmR1bW15LmNvbTEfMB0GCSqGSIb3DQEJARYQMzYy
NjI1MTE5QHFxLmNvbTCBnzANBgkqhkiG9w0BAQEFAAOBjQAwgYkCgYEAqtOzy41K
0ACgW5Vb1+ZuzW1+KLlhZFXVASB6p319in7LVIjOLjHj+inLRoUn0zjb3Nm9+1n9
igP9ICiCH6s2tbXnya3qGyIuB9TTKvmxk42+LUkFCZCSk44Qp2UGNWofOfT4/uuW
MLTyKRRVCPssue7zFlh6XhlAQCN4msfYkBkCAwEAAaN7MHkwCQYDVR0TBAIwADAs
BglghkgBhvhCAQ0EHxYdT3BlblNTTCBHZW5lcmF0ZWQgQ2VydGlmaWNhdGUwHQYD
VR0OBBYEFJHAT0INtsET0/Xcqpte5kLsqH8fMB8GA1UdIwQYMBaAFBARUDPZ5pry
nCARWiNbDBVUCbGqMA0GCSqGSIb3DQEBCwUAA4GBAFs+TjKAVrkZeczs8CKeBbuY
SQnC5LuF6hA8NdMid+FjaWXKI9WIJExD8zaxgS+R7v9rO6xWRFR9ZyIozpPg2EQf
Rvbcf6de1GPpE6yE2Zc2ri9EsRD0fTqUeU0tDxlx1gLtdpZcY8prShLqab70A4tI
cNIiAiDJAtlJUfQVLVEf
-----END CERTIFICATE-----
